; Function Attrs: mustprogress uwtable
define void @_ZNK2cv4gapi2ov8PyParams6paramsEv(ptr dead_on_unwind noalias writable writeonly sret(%"class.cv::util::any") align 8 captures(none) %0, ptr noundef nonnull readonly align 8 captures(none) dereferenceable(16) %1) local_unnamed_addr #3 align 2 personality ptr @__gxx_personality_v0 {
  %3 = load ptr, ptr %1, align 8, !tbaa !6
  tail call void @llvm.experimental.noalias.scope.decl(metadata !37)
  %4 = getelementptr inbounds nuw i8, ptr %3, i64 32
  %5 = tail call noalias noundef nonnull dereferenceable(744) ptr @_Znwm(i64 noundef 744) #21, !noalias !37
  store ptr getelementptr inbounds nuw inrange(-16, 24) (i8, ptr @_ZTVN2cv4util3any11holder_implINS_4gapi2ov6detail9ParamDescEEE, i64 16), ptr %5, align 8, !tbaa !18, !noalias !37
  %6 = getelementptr inbounds nuw i8, ptr %5, i64 8
  invoke void @_ZN2cv4gapi2ov6detail9ParamDescC2ERKS3_(ptr noundef nonnull align 8 dereferenceable(736) %6, ptr noundef nonnull align 8 dereferenceable(736) %4)
          to label %_ZNK2cv4gapi2ov6ParamsINS0_7GenericEE6paramsEv.exit unwind label %7, !noalias !37

7:                                                ; preds = %2
  %8 = landingpad { ptr, i32 }
          cleanup
  tail call void @_ZdlPv(ptr noundef nonnull %5) #22, !noalias !37
  resume { ptr, i32 } %8

_ZNK2cv4gapi2ov6ParamsINS0_7GenericEE6paramsEv.exit: ; preds = %2
  store ptr %5, ptr %0, align 8, !tbaa !40, !alias.scope !37
  ret void
}